; ModuleID = '28/671.c'
source_filename = "28/671.c"
target datalayout = "e-m:e-p270:32:32-p271:32:32-p272:64:64-i64:64-f80:128-n8:16:32:64-S128"
target triple = "x86_64-pc-linux-gnu"

@.str = private unnamed_addr constant [3 x i8] c"%d\00", align 1
@.str.1 = private unnamed_addr constant [4 x i8] c",%d\00", align 1

; Function Attrs: noinline nounwind uwtable
define dso_local i32 @main() #0 {
  %1 = alloca i32, align 4
  %2 = alloca [600 x i32], align 16
  %3 = alloca [600 x i8], align 16
  %4 = alloca [300 x [100 x i8]], align 16
  %5 = alloca i32, align 4
  %6 = alloca i32, align 4
  %7 = alloca i32, align 4
  store i32 0, i32* %1, align 4
  %8 = getelementptr inbounds [600 x i8], [600 x i8]* %3, i64 0, i64 0
  %9 = call i32 (i8*, ...) bitcast (i32 (...)* @gets to i32 (i8*, ...)*)(i8* %8)
  store i32 0, i32* %6, align 4
  store i32 0, i32* %7, align 4
  store i32 0, i32* %5, align 4
  br label %10

10:                                               ; preds = %42, %0
  %11 = load i32, i32* %5, align 4
  %12 = sext i32 %11 to i64
  %13 = getelementptr inbounds [600 x i8], [600 x i8]* %3, i64 0, i64 %12
  %14 = load i8, i8* %13, align 1
  %15 = sext i8 %14 to i32
  %16 = icmp ne i32 %15, 0
  br i1 %16, label %17, label %45

17:                                               ; preds = %10
  %18 = load i32, i32* %5, align 4
  %19 = sext i32 %18 to i64
  %20 = getelementptr inbounds [600 x i8], [600 x i8]* %3, i64 0, i64 %19
  %21 = load i8, i8* %20, align 1
  %22 = sext i8 %21 to i32
  %23 = icmp eq i32 %22, 32
  br i1 %23, label %24, label %41

24:                                               ; preds = %17
  %25 = load i32, i32* %5, align 4
  %26 = sext i32 %25 to i64
  %27 = getelementptr inbounds [600 x i8], [600 x i8]* %3, i64 0, i64 %26
  store i8 0, i8* %27, align 1
  %28 = load i32, i32* %6, align 4
  %29 = sext i32 %28 to i64
  %30 = getelementptr inbounds [300 x [100 x i8]], [300 x [100 x i8]]* %4, i64 0, i64 %29
  %31 = getelementptr inbounds [100 x i8], [100 x i8]* %30, i64 0, i64 0
  %32 = getelementptr inbounds [600 x i8], [600 x i8]* %3, i64 0, i64 0
  %33 = load i32, i32* %7, align 4
  %34 = sext i32 %33 to i64
  %35 = getelementptr inbounds i8, i8* %32, i64 %34
  %36 = call i8* @strcpy(i8* %31, i8* %35) #4
  %37 = load i32, i32* %6, align 4
  %38 = add nsw i32 %37, 1
  store i32 %38, i32* %6, align 4
  %39 = load i32, i32* %5, align 4
  %40 = add nsw i32 %39, 1
  store i32 %40, i32* %7, align 4
  br label %41

41:                                               ; preds = %24, %17
  br label %42

42:                                               ; preds = %41
  %43 = load i32, i32* %5, align 4
  %44 = add nsw i32 %43, 1
  store i32 %44, i32* %5, align 4
  br label %10

45:                                               ; preds = %10
  %46 = load i32, i32* %6, align 4
  %47 = sext i32 %46 to i64
  %48 = getelementptr inbounds [300 x [100 x i8]], [300 x [100 x i8]]* %4, i64 0, i64 %47
  %49 = getelementptr inbounds [100 x i8], [100 x i8]* %48, i64 0, i64 0
  %50 = getelementptr inbounds [600 x i8], [600 x i8]* %3, i64 0, i64 0
  %51 = load i32, i32* %7, align 4
  %52 = sext i32 %51 to i64
  %53 = getelementptr inbounds i8, i8* %50, i64 %52
  %54 = call i8* @strcpy(i8* %49, i8* %53) #4
  %55 = load i32, i32* %6, align 4
  %56 = add nsw i32 %55, 1
  store i32 %56, i32* %6, align 4
  store i32 0, i32* %5, align 4
  br label %57

57:                                               ; preds = %71, %45
  %58 = load i32, i32* %5, align 4
  %59 = load i32, i32* %6, align 4
  %60 = icmp slt i32 %58, %59
  br i1 %60, label %61, label %74

61:                                               ; preds = %57
  %62 = load i32, i32* %5, align 4
  %63 = sext i32 %62 to i64
  %64 = getelementptr inbounds [300 x [100 x i8]], [300 x [100 x i8]]* %4, i64 0, i64 %63
  %65 = getelementptr inbounds [100 x i8], [100 x i8]* %64, i64 0, i64 0
  %66 = call i64 @strlen(i8* %65) #5
  %67 = trunc i64 %66 to i32
  %68 = load i32, i32* %5, align 4
  %69 = sext i32 %68 to i64
  %70 = getelementptr inbounds [600 x i32], [600 x i32]* %2, i64 0, i64 %69
  store i32 %67, i32* %70, align 4
  br label %71

71:                                               ; preds = %61
  %72 = load i32, i32* %5, align 4
  %73 = add nsw i32 %72, 1
  store i32 %73, i32* %5, align 4
  br label %57

74:                                               ; preds = %57
  %75 = getelementptr inbounds [600 x i32], [600 x i32]* %2, i64 0, i64 0
  %76 = load i32, i32* %75, align 16
  %77 = call i32 (i8*, ...) @printf(i8* getelementptr inbounds ([3 x i8], [3 x i8]* @.str, i64 0, i64 0), i32 %76)
  store i32 1, i32* %5, align 4
  br label %78

78:                                               ; preds = %95, %74
  %79 = load i32, i32* %5, align 4
  %80 = load i32, i32* %6, align 4
  %81 = icmp slt i32 %79, %80
  br i1 %81, label %82, label %98

82:                                               ; preds = %78
  %83 = load i32, i32* %5, align 4
  %84 = sext i32 %83 to i64
  %85 = getelementptr inbounds [600 x i32], [600 x i32]* %2, i64 0, i64 %84
  %86 = load i32, i32* %85, align 4
  %87 = icmp ne i32 %86, 0
  br i1 %87, label %88, label %94

88:                                               ; preds = %82
  %89 = load i32, i32* %5, align 4
  %90 = sext i32 %89 to i64
  %91 = getelementptr inbounds [600 x i32], [600 x i32]* %2, i64 0, i64 %90
  %92 = load i32, i32* %91, align 4
  %93 = call i32 (i8*, ...) @printf(i8* getelementptr inbounds ([4 x i8], [4 x i8]* @.str.1, i64 0, i64 0), i32 %92)
  br label %94

94:                                               ; preds = %88, %82
  br label %95

95:                                               ; preds = %94
  %96 = load i32, i32* %5, align 4
  %97 = add nsw i32 %96, 1
  store i32 %97, i32* %5, align 4
  br label %78

98:                                               ; preds = %78
  ret i32 0
}

declare dso_local i32 @gets(...) #1

; Function Attrs: nounwind
declare dso_local i8* @strcpy(i8*, i8*) #2

; Function Attrs: nounwind readonly
declare dso_local i64 @strlen(i8*) #3

declare dso_local i32 @printf(i8*, ...) #1


!llvm.module.flags = !{!0}
!llvm.ident = !{!1}

!0 = !{i32 1, !"wchar_size", i32 4}
!1 = !{!"clang version 10.0.0-4ubuntu1 "}
